	.section	__TEXT,__text,regular,pure_instructions
	.macosx_version_min 10, 12
	.globl	_main                   ## -- Begin function main
	.p2align	4, 0x90
_main:                                  ## @main
	.cfi_startproc
## BB#0:
	pushq	%rbp
Lcfi0:
	.cfi_def_cfa_offset 16
Lcfi1:
	.cfi_offset %rbp, -16
	movq	%rsp, %rbp
Lcfi2:
	.cfi_def_cfa_register %rbp
	subq	$32, %rsp
	leaq	-8(%rbp), %rdi
	movl	$0, -4(%rbp)
	callq	__ZN1BC1Ev
	leaq	-32(%rbp), %rdi
	callq	__ZN3XyzC1Ev
	leaq	-32(%rbp), %rdi
	movl	$0, -4(%rbp)
	callq	__ZN3XyzD1Ev
	movl	-4(%rbp), %eax
	addq	$32, %rsp
	popq	%rbp
	retq
	.cfi_endproc
                                        ## -- End function
	.globl	__ZN1BC1Ev              ## -- Begin function _ZN1BC1Ev
	.weak_def_can_be_hidden	__ZN1BC1Ev
	.p2align	4, 0x90
__ZN1BC1Ev:                             ## @_ZN1BC1Ev
	.cfi_startproc
## BB#0:
	pushq	%rbp
Lcfi3:
	.cfi_def_cfa_offset 16
Lcfi4:
	.cfi_offset %rbp, -16
	movq	%rsp, %rbp
Lcfi5:
	.cfi_def_cfa_register %rbp
	subq	$16, %rsp
	movq	%rdi, -8(%rbp)
	movq	-8(%rbp), %rdi
	callq	__ZN1BC2Ev
	addq	$16, %rsp
	popq	%rbp
	retq
	.cfi_endproc
                                        ## -- End function
	.globl	__ZN3XyzC1Ev            ## -- Begin function _ZN3XyzC1Ev
	.weak_def_can_be_hidden	__ZN3XyzC1Ev
	.p2align	4, 0x90
__ZN3XyzC1Ev:                           ## @_ZN3XyzC1Ev
	.cfi_startproc
## BB#0:
	pushq	%rbp
Lcfi6:
	.cfi_def_cfa_offset 16
Lcfi7:
	.cfi_offset %rbp, -16
	movq	%rsp, %rbp
Lcfi8:
	.cfi_def_cfa_register %rbp
	subq	$16, %rsp
	movq	%rdi, -8(%rbp)
	movq	-8(%rbp), %rdi
	callq	__ZN3XyzC2Ev
	addq	$16, %rsp
	popq	%rbp
	retq
	.cfi_endproc
                                        ## -- End function
	.globl	__ZN3XyzD1Ev            ## -- Begin function _ZN3XyzD1Ev
	.weak_def_can_be_hidden	__ZN3XyzD1Ev
	.p2align	4, 0x90
__ZN3XyzD1Ev:                           ## @_ZN3XyzD1Ev
	.cfi_startproc
## BB#0:
	pushq	%rbp
Lcfi9:
	.cfi_def_cfa_offset 16
Lcfi10:
	.cfi_offset %rbp, -16
	movq	%rsp, %rbp
Lcfi11:
	.cfi_def_cfa_register %rbp
	subq	$16, %rsp
	movq	%rdi, -8(%rbp)
	movq	-8(%rbp), %rdi
	callq	__ZN3XyzD2Ev
	addq	$16, %rsp
	popq	%rbp
	retq
	.cfi_endproc
                                        ## -- End function
	.globl	__ZN1BC2Ev              ## -- Begin function _ZN1BC2Ev
	.weak_def_can_be_hidden	__ZN1BC2Ev
	.p2align	4, 0x90
__ZN1BC2Ev:                             ## @_ZN1BC2Ev
	.cfi_startproc
## BB#0:
	pushq	%rbp
Lcfi12:
	.cfi_def_cfa_offset 16
Lcfi13:
	.cfi_offset %rbp, -16
	movq	%rsp, %rbp
Lcfi14:
	.cfi_def_cfa_register %rbp
	subq	$16, %rsp
	movq	%rdi, -8(%rbp)
	movq	-8(%rbp), %rdi
	callq	__ZN1AC1Ev
	addq	$16, %rsp
	popq	%rbp
	retq
	.cfi_endproc
                                        ## -- End function
	.globl	__ZN1AC1Ev              ## -- Begin function _ZN1AC1Ev
	.weak_def_can_be_hidden	__ZN1AC1Ev
	.p2align	4, 0x90
__ZN1AC1Ev:                             ## @_ZN1AC1Ev
	.cfi_startproc
## BB#0:
	pushq	%rbp
Lcfi15:
	.cfi_def_cfa_offset 16
Lcfi16:
	.cfi_offset %rbp, -16
	movq	%rsp, %rbp
Lcfi17:
	.cfi_def_cfa_register %rbp
	subq	$16, %rsp
	movq	%rdi, -8(%rbp)
	movq	-8(%rbp), %rdi
	callq	__ZN1AC2Ev
	addq	$16, %rsp
	popq	%rbp
	retq
	.cfi_endproc
                                        ## -- End function
	.globl	__ZN1AC2Ev              ## -- Begin function _ZN1AC2Ev
	.weak_def_can_be_hidden	__ZN1AC2Ev
	.p2align	4, 0x90
__ZN1AC2Ev:                             ## @_ZN1AC2Ev
	.cfi_startproc
## BB#0:
	pushq	%rbp
Lcfi18:
	.cfi_def_cfa_offset 16
Lcfi19:
	.cfi_offset %rbp, -16
	movq	%rsp, %rbp
Lcfi20:
	.cfi_def_cfa_register %rbp
	movq	%rdi, -8(%rbp)
	popq	%rbp
	retq
	.cfi_endproc
                                        ## -- End function
	.globl	__ZN3XyzC2Ev            ## -- Begin function _ZN3XyzC2Ev
	.weak_def_can_be_hidden	__ZN3XyzC2Ev
	.p2align	4, 0x90
__ZN3XyzC2Ev:                           ## @_ZN3XyzC2Ev
	.cfi_startproc
## BB#0:
	pushq	%rbp
Lcfi21:
	.cfi_def_cfa_offset 16
Lcfi22:
	.cfi_offset %rbp, -16
	movq	%rsp, %rbp
Lcfi23:
	.cfi_def_cfa_register %rbp
	subq	$16, %rsp
	movq	%rdi, -8(%rbp)
	movq	-8(%rbp), %rdi
	movl	$2048, (%rdi)           ## imm = 0x800
	movq	%rdi, %rax
	addq	$4, %rax
	movq	%rdi, -16(%rbp)         ## 8-byte Spill
	movq	%rax, %rdi
	callq	__ZN1XC1Ev
	movl	$1024, %esi             ## imm = 0x400
	movq	-16(%rbp), %rax         ## 8-byte Reload
	addq	$8, %rax
	movq	%rax, %rdi
	callq	__ZN1YC1Ei
	movq	-16(%rbp), %rax         ## 8-byte Reload
	addq	$16, %rax
	movq	%rax, %rdi
	callq	__ZN1ZC1Ev
	addq	$16, %rsp
	popq	%rbp
	retq
	.cfi_endproc
                                        ## -- End function
	.globl	__ZN1XC1Ev              ## -- Begin function _ZN1XC1Ev
	.weak_def_can_be_hidden	__ZN1XC1Ev
	.p2align	4, 0x90
__ZN1XC1Ev:                             ## @_ZN1XC1Ev
	.cfi_startproc
## BB#0:
	pushq	%rbp
Lcfi24:
	.cfi_def_cfa_offset 16
Lcfi25:
	.cfi_offset %rbp, -16
	movq	%rsp, %rbp
Lcfi26:
	.cfi_def_cfa_register %rbp
	subq	$16, %rsp
	movq	%rdi, -8(%rbp)
	movq	-8(%rbp), %rdi
	callq	__ZN1XC2Ev
	addq	$16, %rsp
	popq	%rbp
	retq
	.cfi_endproc
                                        ## -- End function
	.globl	__ZN1YC1Ei              ## -- Begin function _ZN1YC1Ei
	.weak_def_can_be_hidden	__ZN1YC1Ei
	.p2align	4, 0x90
__ZN1YC1Ei:                             ## @_ZN1YC1Ei
	.cfi_startproc
## BB#0:
	pushq	%rbp
Lcfi27:
	.cfi_def_cfa_offset 16
Lcfi28:
	.cfi_offset %rbp, -16
	movq	%rsp, %rbp
Lcfi29:
	.cfi_def_cfa_register %rbp
	subq	$16, %rsp
	movq	%rdi, -8(%rbp)
	movl	%esi, -12(%rbp)
	movq	-8(%rbp), %rdi
	movl	-12(%rbp), %esi
	callq	__ZN1YC2Ei
	addq	$16, %rsp
	popq	%rbp
	retq
	.cfi_endproc
                                        ## -- End function
	.globl	__ZN1ZC1Ev              ## -- Begin function _ZN1ZC1Ev
	.weak_def_can_be_hidden	__ZN1ZC1Ev
	.p2align	4, 0x90
__ZN1ZC1Ev:                             ## @_ZN1ZC1Ev
	.cfi_startproc
## BB#0:
	pushq	%rbp
Lcfi30:
	.cfi_def_cfa_offset 16
Lcfi31:
	.cfi_offset %rbp, -16
	movq	%rsp, %rbp
Lcfi32:
	.cfi_def_cfa_register %rbp
	subq	$16, %rsp
	movq	%rdi, -8(%rbp)
	movq	-8(%rbp), %rdi
	callq	__ZN1ZC2Ev
	addq	$16, %rsp
	popq	%rbp
	retq
	.cfi_endproc
                                        ## -- End function
	.globl	__ZN1XC2Ev              ## -- Begin function _ZN1XC2Ev
	.weak_def_can_be_hidden	__ZN1XC2Ev
	.p2align	4, 0x90
__ZN1XC2Ev:                             ## @_ZN1XC2Ev
	.cfi_startproc
## BB#0:
	pushq	%rbp
Lcfi33:
	.cfi_def_cfa_offset 16
Lcfi34:
	.cfi_offset %rbp, -16
	movq	%rsp, %rbp
Lcfi35:
	.cfi_def_cfa_register %rbp
	movq	%rdi, -8(%rbp)
	movq	-8(%rbp), %rdi
	movw	$0, (%rdi)
	popq	%rbp
	retq
	.cfi_endproc
                                        ## -- End function
	.globl	__ZN1YC2Ei              ## -- Begin function _ZN1YC2Ei
	.weak_def_can_be_hidden	__ZN1YC2Ei
	.p2align	4, 0x90
__ZN1YC2Ei:                             ## @_ZN1YC2Ei
	.cfi_startproc
## BB#0:
	pushq	%rbp
Lcfi36:
	.cfi_def_cfa_offset 16
Lcfi37:
	.cfi_offset %rbp, -16
	movq	%rsp, %rbp
Lcfi38:
	.cfi_def_cfa_register %rbp
	movq	%rdi, -8(%rbp)
	movl	%esi, -12(%rbp)
	popq	%rbp
	retq
	.cfi_endproc
                                        ## -- End function
	.globl	__ZN1ZC2Ev              ## -- Begin function _ZN1ZC2Ev
	.weak_def_can_be_hidden	__ZN1ZC2Ev
	.p2align	4, 0x90
__ZN1ZC2Ev:                             ## @_ZN1ZC2Ev
	.cfi_startproc
## BB#0:
	pushq	%rbp
Lcfi39:
	.cfi_def_cfa_offset 16
Lcfi40:
	.cfi_offset %rbp, -16
	movq	%rsp, %rbp
Lcfi41:
	.cfi_def_cfa_register %rbp
	movq	%rdi, -8(%rbp)
	movq	-8(%rbp), %rdi
	movq	$0, (%rdi)
	popq	%rbp
	retq
	.cfi_endproc
                                        ## -- End function
	.globl	__ZN3XyzD2Ev            ## -- Begin function _ZN3XyzD2Ev
	.weak_def_can_be_hidden	__ZN3XyzD2Ev
	.p2align	4, 0x90
__ZN3XyzD2Ev:                           ## @_ZN3XyzD2Ev
	.cfi_startproc
## BB#0:
	pushq	%rbp
Lcfi42:
	.cfi_def_cfa_offset 16
Lcfi43:
	.cfi_offset %rbp, -16
	movq	%rsp, %rbp
Lcfi44:
	.cfi_def_cfa_register %rbp
	movq	%rdi, -8(%rbp)
	popq	%rbp
	retq
	.cfi_endproc
                                        ## -- End function

.subsections_via_symbols
